target datalayout = "e-m:e-p270:32:32-p271:32:32-p272:64:64-i64:64-i128:128-f80:128-n8:16:32:64-S128"
target triple = "x86_64-pc-linux-gnu"

%struct.spawn_req = type { i32, ptr, i32, i32, ptr, ptr, ptr }
%struct.spawn_resp = type { i32, i32, ptr, i16, i32, ptr }

@plugin_type = external constant [0 x i8], align 1
@.str.35 = private unnamed_addr constant [35 x i8] c"%s: %s: mpi/pmi2: in _handle_spawn\00", align 1
@__func__._handle_spawn = private unnamed_addr constant [14 x i8] c"_handle_spawn\00", align 1
@.str.36 = private unnamed_addr constant [51 x i8] c"mpi/pmi2: failed to unpack spawn request spawn cmd\00", align 1
@.str.37 = private unnamed_addr constant [30 x i8] c"mpi/pmi2: failed to spawn job\00", align 1
@.str.38 = private unnamed_addr constant [36 x i8] c"%s: %s: mpi/pmi2: out _handle_spawn\00", align 1

; Function Attrs: nounwind uwtable
define internal i32 @_handle_spawn(i32 noundef %0, ptr noundef %1) #0 {
  %3 = alloca i32, align 4
  %4 = alloca i32, align 4
  %5 = alloca ptr, align 8
  %6 = alloca i32, align 4
  %7 = alloca ptr, align 8
  %8 = alloca ptr, align 8
  %9 = alloca i32, align 4
  store i32 %0, ptr %4, align 4
  store ptr %1, ptr %5, align 8
  call void @llvm.lifetime.start.p0(i64 4, ptr %6) #6
  call void @llvm.lifetime.start.p0(i64 8, ptr %7) #6
  store ptr null, ptr %7, align 8
  call void @llvm.lifetime.start.p0(i64 8, ptr %8) #6
  store ptr null, ptr %8, align 8
  br label %10

10:                                               ; preds = %2
  br label %11

11:                                               ; preds = %10
  %12 = call i32 @slurm_get_log_level()
  %13 = icmp sge i32 %12, 7
  br i1 %13, label %14, label %15

14:                                               ; preds = %11
  call void (i32, ptr, ...) @slurm_log_var(i32 noundef 7, ptr noundef @.str.35, ptr noundef @plugin_type, ptr noundef @__func__._handle_spawn)
  br label %15

15:                                               ; preds = %14, %11
  br label %16

16:                                               ; preds = %15
  br label %17

17:                                               ; preds = %16
  br label %18

18:                                               ; preds = %17
  br label %19

19:                                               ; preds = %18
  %20 = load ptr, ptr %5, align 8
  %21 = call i32 @spawn_req_unpack(ptr noundef %7, ptr noundef %20)
  store i32 %21, ptr %6, align 4
  %22 = load i32, ptr %6, align 4
  %23 = icmp ne i32 %22, 0
  br i1 %23, label %24, label %27

24:                                               ; preds = %19
  %25 = call i32 (ptr, ...) @slurm_error(ptr noundef @.str.36)
  %26 = load i32, ptr %6, align 4
  store i32 %26, ptr %3, align 4
  store i32 1, ptr %9, align 4
  br label %77

27:                                               ; preds = %19
  %28 = call i32 @spawn_seq_next()
  %29 = load ptr, ptr %7, align 8
  %30 = getelementptr inbounds nuw %struct.spawn_req, ptr %29, i32 0, i32 0
  store i32 %28, ptr %30, align 8
  %31 = call ptr @spawn_resp_new()
  store ptr %31, ptr %8, align 8
  %32 = load ptr, ptr %7, align 8
  %33 = getelementptr inbounds nuw %struct.spawn_req, ptr %32, i32 0, i32 0
  %34 = load i32, ptr %33, align 8
  %35 = load ptr, ptr %8, align 8
  %36 = getelementptr inbounds nuw %struct.spawn_resp, ptr %35, i32 0, i32 0
  store i32 %34, ptr %36, align 8
  %37 = load ptr, ptr %8, align 8
  %38 = getelementptr inbounds nuw %struct.spawn_resp, ptr %37, i32 0, i32 2
  store ptr null, ptr %38, align 8
  %39 = load ptr, ptr %8, align 8
  %40 = getelementptr inbounds nuw %struct.spawn_resp, ptr %39, i32 0, i32 4
  store i32 0, ptr %40, align 4
  %41 = load ptr, ptr %7, align 8
  %42 = call i32 @spawn_job_do_spawn(ptr noundef %41)
  store i32 %42, ptr %6, align 4
  %43 = load i32, ptr %6, align 4
  %44 = icmp ne i32 %43, 0
  br i1 %44, label %45, label %50

45:                                               ; preds = %27
  %46 = call i32 (ptr, ...) @slurm_error(ptr noundef @.str.37)
  %47 = load i32, ptr %6, align 4
  %48 = load ptr, ptr %8, align 8
  %49 = getelementptr inbounds nuw %struct.spawn_resp, ptr %48, i32 0, i32 1
  store i32 %47, ptr %49, align 4
  br label %60

50:                                               ; preds = %27
  %51 = load ptr, ptr %8, align 8
  %52 = getelementptr inbounds nuw %struct.spawn_resp, ptr %51, i32 0, i32 0
  %53 = load i32, ptr %52, align 8
  %54 = load ptr, ptr %7, align 8
  %55 = getelementptr inbounds nuw %struct.spawn_req, ptr %54, i32 0, i32 1
  %56 = load ptr, ptr %55, align 8
  %57 = call i32 @spawn_psr_enqueue(i32 noundef %53, i32 noundef -1, i32 noundef -1, ptr noundef %56)
  %58 = load ptr, ptr %8, align 8
  %59 = getelementptr inbounds nuw %struct.spawn_resp, ptr %58, i32 0, i32 1
  store i32 0, ptr %59, align 4
  br label %60

60:                                               ; preds = %50, %45
  %61 = load ptr, ptr %8, align 8
  %62 = load i32, ptr %4, align 4
  %63 = call i32 @spawn_resp_send_to_fd(ptr noundef %61, i32 noundef %62)
  %64 = load ptr, ptr %7, align 8
  call void @spawn_req_free(ptr noundef %64)
  %65 = load ptr, ptr %8, align 8
  call void @spawn_resp_free(ptr noundef %65)
  br label %66

66:                                               ; preds = %60
  br label %67

67:                                               ; preds = %66
  %68 = call i32 @slurm_get_log_level()
  %69 = icmp sge i32 %68, 7
  br i1 %69, label %70, label %71

70:                                               ; preds = %67
  call void (i32, ptr, ...) @slurm_log_var(i32 noundef 7, ptr noundef @.str.38, ptr noundef @plugin_type, ptr noundef @__func__._handle_spawn)
  br label %71

71:                                               ; preds = %70, %67
  br label %72

72:                                               ; preds = %71
  br label %73

73:                                               ; preds = %72
  br label %74

74:                                               ; preds = %73
  br label %75

75:                                               ; preds = %74
  %76 = load i32, ptr %6, align 4
  store i32 %76, ptr %3, align 4
  store i32 1, ptr %9, align 4
  br label %77

77:                                               ; preds = %75, %24
  call void @llvm.lifetime.end.p0(i64 8, ptr %8) #6
  call void @llvm.lifetime.end.p0(i64 8, ptr %7) #6
  call void @llvm.lifetime.end.p0(i64 4, ptr %6) #6
  %78 = load i32, ptr %3, align 4
  ret i32 %78
}