; Function Attrs: nounwind uwtable
define internal i32 @_handle_spawn(i32 noundef %0, ptr noundef %1) #0 {
  %3 = alloca ptr, align 8
  call void @llvm.lifetime.start.p0(i64 8, ptr nonnull %3) #7
  store ptr null, ptr %3, align 8
  %4 = tail call i32 @slurm_get_log_level() #7
  %5 = icmp sgt i32 %4, 6
  br i1 %5, label %6, label %7

6:                                                ; preds = %2
  tail call void (i32, ptr, ...) @slurm_log_var(i32 noundef 7, ptr noundef nonnull @.str.35, ptr noundef nonnull @plugin_type, ptr noundef nonnull @__func__._handle_spawn) #7
  br label %7

7:                                                ; preds = %6, %2
  %8 = call i32 @spawn_req_unpack(ptr noundef nonnull %3, ptr noundef %1) #7
  %.not = icmp eq i32 %8, 0
  br i1 %.not, label %11, label %9

9:                                                ; preds = %7
  %10 = call i32 (ptr, ...) @slurm_error(ptr noundef nonnull @.str.36) #7
  br label %36

11:                                               ; preds = %7
  %12 = call i32 @spawn_seq_next() #7
  %13 = load ptr, ptr %3, align 8
  store i32 %12, ptr %13, align 8
  %14 = call ptr @spawn_resp_new() #7
  %15 = load ptr, ptr %3, align 8
  %16 = load i32, ptr %15, align 8
  store i32 %16, ptr %14, align 8
  %17 = getelementptr inbounds nuw i8, ptr %14, i64 8
  store ptr null, ptr %17, align 8
  %18 = getelementptr inbounds nuw i8, ptr %14, i64 20
  store i32 0, ptr %18, align 4
  %19 = load ptr, ptr %3, align 8
  %20 = call i32 @spawn_job_do_spawn(ptr noundef %19) #7
  %.not17 = icmp eq i32 %20, 0
  br i1 %.not17, label %23, label %21

21:                                               ; preds = %11
  %22 = call i32 (ptr, ...) @slurm_error(ptr noundef nonnull @.str.37) #7
  br label %29

23:                                               ; preds = %11
  %24 = load i32, ptr %14, align 8
  %25 = load ptr, ptr %3, align 8
  %26 = getelementptr inbounds nuw i8, ptr %25, i64 8
  %27 = load ptr, ptr %26, align 8
  %28 = call i32 @spawn_psr_enqueue(i32 noundef %24, i32 noundef -1, i32 noundef -1, ptr noundef %27) #7
  br label %29

29:                                               ; preds = %23, %21
  %30 = getelementptr inbounds nuw i8, ptr %14, i64 4
  store i32 %20, ptr %30, align 4
  %31 = call i32 @spawn_resp_send_to_fd(ptr noundef nonnull %14, i32 noundef %0) #7
  %32 = load ptr, ptr %3, align 8
  call void @spawn_req_free(ptr noundef %32) #7
  call void @spawn_resp_free(ptr noundef nonnull %14) #7
  %33 = call i32 @slurm_get_log_level() #7
  %34 = icmp sgt i32 %33, 6
  br i1 %34, label %35, label %36

35:                                               ; preds = %29
  call void (i32, ptr, ...) @slurm_log_var(i32 noundef 7, ptr noundef nonnull @.str.38, ptr noundef nonnull @plugin_type, ptr noundef nonnull @__func__._handle_spawn) #7
  br label %36

36:                                               ; preds = %29, %35, %9
  %.0 = phi i32 [ %8, %9 ], [ %20, %35 ], [ %20, %29 ]
  call void @llvm.lifetime.end.p0(i64 8, ptr nonnull %3) #7
  ret i32 %.0
}